
test:     file format elf64-littleaarch64


Disassembly of section .plt:

0000000000400280 <.plt>:
  400280:	a9bf7bf0 	stp	x16, x30, [sp, #-16]!
  400284:	90000090 	adrp	x16, 410000 <_start+0xfd50>
  400288:	f947fe11 	ldr	x17, [x16, #4088]
  40028c:	913fe210 	add	x16, x16, #0xff8
  400290:	d61f0220 	br	x17
  400294:	d503201f 	nop
  400298:	d503201f 	nop
  40029c:	d503201f 	nop

00000000004002a0 <printf@plt>:
  4002a0:	b0000090 	adrp	x16, 411000 <printf@GLIBC_2.17>
  4002a4:	f9400211 	ldr	x17, [x16]
  4002a8:	91000210 	add	x16, x16, #0x0
  4002ac:	d61f0220 	br	x17

Disassembly of section .text:

00000000004002b0 <_start>:
  4002b0:	a9bd7bfd 	stp	x29, x30, [sp, #-48]!
  4002b4:	580001a3 	ldr	x3, 4002e8 <_start+0x38>
  4002b8:	58086a84 	ldr	x4, 411008 <my_data1>
  4002bc:	10086a69 	adr	x9, 411008 <my_data1>
  4002c0:	f940000a 	ldr	x10, [x0]
  4002c4:	58000125 	ldr	x5, 4002e8 <_start+0x38>
  4002c8:	f94000a2 	ldr	x2, [x5]
  4002cc:	58000126 	ldr	x6, 4002f0 <_start+0x40>
  4002d0:	f94000c3 	ldr	x3, [x6]
  4002d4:	8b030041 	add	x1, x2, x3
  4002d8:	58000100 	ldr	x0, 4002f8 <_start+0x48>
  4002dc:	97fffff1 	bl	4002a0 <printf@plt>
  4002e0:	a8c37bfd 	ldp	x29, x30, [sp], #48
  4002e4:	d65f03c0 	ret
  4002e8:	00411008 	.word	0x00411008
  4002ec:	00000000 	.word	0x00000000
  4002f0:	00411010 	.word	0x00411010
  4002f4:	00000000 	.word	0x00000000
  4002f8:	00411014 	.word	0x00411014
  4002fc:	00000000 	.word	0x00000000
