
./a.out:     file format elf64-littleaarch64


Disassembly of section .init:

00000000000005d8 <_init>:
 5d8:	a9bf7bfd 	stp	x29, x30, [sp, #-16]!
 5dc:	910003fd 	mov	x29, sp
 5e0:	9400004b 	bl	70c <call_weak_fn>
 5e4:	a8c17bfd 	ldp	x29, x30, [sp], #16
 5e8:	d65f03c0 	ret

Disassembly of section .plt:

00000000000005f0 <.plt>:
 5f0:	a9bf7bf0 	stp	x16, x30, [sp, #-16]!
 5f4:	90000090 	adrp	x16, 10000 <__FRAME_END__+0xf6e0>
 5f8:	f947c611 	ldr	x17, [x16, #3976]
 5fc:	913e2210 	add	x16, x16, #0xf88
 600:	d61f0220 	br	x17
 604:	d503201f 	nop
 608:	d503201f 	nop
 60c:	d503201f 	nop

0000000000000610 <__cxa_finalize@plt>:
 610:	90000090 	adrp	x16, 10000 <__FRAME_END__+0xf6e0>
 614:	f947ca11 	ldr	x17, [x16, #3984]
 618:	913e4210 	add	x16, x16, #0xf90
 61c:	d61f0220 	br	x17

0000000000000620 <__libc_start_main@plt>:
 620:	90000090 	adrp	x16, 10000 <__FRAME_END__+0xf6e0>
 624:	f947ce11 	ldr	x17, [x16, #3992]
 628:	913e6210 	add	x16, x16, #0xf98
 62c:	d61f0220 	br	x17

0000000000000630 <__printf_chk@plt>:
 630:	90000090 	adrp	x16, 10000 <__FRAME_END__+0xf6e0>
 634:	f947d211 	ldr	x17, [x16, #4000]
 638:	913e8210 	add	x16, x16, #0xfa0
 63c:	d61f0220 	br	x17

0000000000000640 <__gmon_start__@plt>:
 640:	90000090 	adrp	x16, 10000 <__FRAME_END__+0xf6e0>
 644:	f947d611 	ldr	x17, [x16, #4008]
 648:	913ea210 	add	x16, x16, #0xfa8
 64c:	d61f0220 	br	x17

0000000000000650 <abort@plt>:
 650:	90000090 	adrp	x16, 10000 <__FRAME_END__+0xf6e0>
 654:	f947da11 	ldr	x17, [x16, #4016]
 658:	913ec210 	add	x16, x16, #0xfb0
 65c:	d61f0220 	br	x17

0000000000000660 <puts@plt>:
 660:	90000090 	adrp	x16, 10000 <__FRAME_END__+0xf6e0>
 664:	f947de11 	ldr	x17, [x16, #4024]
 668:	913ee210 	add	x16, x16, #0xfb8
 66c:	d61f0220 	br	x17

Disassembly of section .text:

0000000000000670 <main>:
	tmp=a+b;
	return tmp;
}

int main(int argc,char *argv[])
{
 670:	a9bf7bfd 	stp	x29, x30, [sp, #-16]!
}

__fortify_function int
printf (const char *__restrict __fmt, ...)
{
  return __printf_chk (__USE_FORTIFY_LEVEL - 1, __fmt, __va_arg_pack ());
 674:	529a1c22 	mov	w2, #0xd0e1                	// #53473
 678:	72ad1582 	movk	w2, #0x68ac, lsl #16
 67c:	90000001 	adrp	x1, 0 <_init-0x5d8>
 680:	910003fd 	mov	x29, sp
 684:	9123a021 	add	x1, x1, #0x8e8
 688:	52800020 	mov	w0, #0x1                   	// #1
 68c:	97ffffe9 	bl	630 <__printf_chk@plt>
 690:	1281ffc2 	mov	w2, #0xfffff001            	// #-4095
 694:	90000001 	adrp	x1, 0 <_init-0x5d8>
 698:	52800020 	mov	w0, #0x1                   	// #1
 69c:	91240021 	add	x1, x1, #0x900
 6a0:	97ffffe4 	bl	630 <__printf_chk@plt>
 6a4:	90000001 	adrp	x1, 0 <_init-0x5d8>
 6a8:	52824682 	mov	w2, #0x1234                	// #4660
 6ac:	91242021 	add	x1, x1, #0x908
 6b0:	72a24642 	movk	w2, #0x1232, lsl #16
 6b4:	52800020 	mov	w0, #0x1                   	// #1
 6b8:	97ffffde 	bl	630 <__printf_chk@plt>
 6bc:	90000000 	adrp	x0, 0 <_init-0x5d8>
 6c0:	91244000 	add	x0, x0, #0x910
 6c4:	97ffffe7 	bl	660 <puts@plt>
		add_fun(a,b);
	else
		sub_fun(a,b);
	
	return 0;
}
 6c8:	52800000 	mov	w0, #0x0                   	// #0
 6cc:	a8c17bfd 	ldp	x29, x30, [sp], #16
 6d0:	d65f03c0 	ret

00000000000006d4 <_start>:
 6d4:	d280001d 	mov	x29, #0x0                   	// #0
 6d8:	d280001e 	mov	x30, #0x0                   	// #0
 6dc:	aa0003e5 	mov	x5, x0
 6e0:	f94003e1 	ldr	x1, [sp]
 6e4:	910023e2 	add	x2, sp, #0x8
 6e8:	910003e6 	mov	x6, sp
 6ec:	90000080 	adrp	x0, 10000 <__FRAME_END__+0xf6e0>
 6f0:	f947f800 	ldr	x0, [x0, #4080]
 6f4:	90000083 	adrp	x3, 10000 <__FRAME_END__+0xf6e0>
 6f8:	f947f463 	ldr	x3, [x3, #4072]
 6fc:	90000084 	adrp	x4, 10000 <__FRAME_END__+0xf6e0>
 700:	f947e484 	ldr	x4, [x4, #4040]
 704:	97ffffc7 	bl	620 <__libc_start_main@plt>
 708:	97ffffd2 	bl	650 <abort@plt>

000000000000070c <call_weak_fn>:
 70c:	90000080 	adrp	x0, 10000 <__FRAME_END__+0xf6e0>
 710:	f947f000 	ldr	x0, [x0, #4064]
 714:	b4000040 	cbz	x0, 71c <call_weak_fn+0x10>
 718:	17ffffca 	b	640 <__gmon_start__@plt>
 71c:	d65f03c0 	ret

0000000000000720 <deregister_tm_clones>:
 720:	b0000080 	adrp	x0, 11000 <__data_start>
 724:	91004000 	add	x0, x0, #0x10
 728:	b0000081 	adrp	x1, 11000 <__data_start>
 72c:	91004021 	add	x1, x1, #0x10
 730:	eb00003f 	cmp	x1, x0
 734:	540000a0 	b.eq	748 <deregister_tm_clones+0x28>  // b.none
 738:	90000081 	adrp	x1, 10000 <__FRAME_END__+0xf6e0>
 73c:	f947e821 	ldr	x1, [x1, #4048]
 740:	b4000041 	cbz	x1, 748 <deregister_tm_clones+0x28>
 744:	d61f0020 	br	x1
 748:	d65f03c0 	ret
 74c:	d503201f 	nop

0000000000000750 <register_tm_clones>:
 750:	b0000080 	adrp	x0, 11000 <__data_start>
 754:	91004000 	add	x0, x0, #0x10
 758:	b0000081 	adrp	x1, 11000 <__data_start>
 75c:	91004021 	add	x1, x1, #0x10
 760:	cb000021 	sub	x1, x1, x0
 764:	9343fc21 	asr	x1, x1, #3
 768:	8b41fc21 	add	x1, x1, x1, lsr #63
 76c:	9341fc21 	asr	x1, x1, #1
 770:	b40000a1 	cbz	x1, 784 <register_tm_clones+0x34>
 774:	90000082 	adrp	x2, 10000 <__FRAME_END__+0xf6e0>
 778:	f947fc42 	ldr	x2, [x2, #4088]
 77c:	b4000042 	cbz	x2, 784 <register_tm_clones+0x34>
 780:	d61f0040 	br	x2
 784:	d65f03c0 	ret

0000000000000788 <__do_global_dtors_aux>:
 788:	a9be7bfd 	stp	x29, x30, [sp, #-32]!
 78c:	910003fd 	mov	x29, sp
 790:	f9000bf3 	str	x19, [sp, #16]
 794:	b0000093 	adrp	x19, 11000 <__data_start>
 798:	39404260 	ldrb	w0, [x19, #16]
 79c:	35000140 	cbnz	w0, 7c4 <__do_global_dtors_aux+0x3c>
 7a0:	90000080 	adrp	x0, 10000 <__FRAME_END__+0xf6e0>
 7a4:	f947ec00 	ldr	x0, [x0, #4056]
 7a8:	b4000080 	cbz	x0, 7b8 <__do_global_dtors_aux+0x30>
 7ac:	b0000080 	adrp	x0, 11000 <__data_start>
 7b0:	f9400400 	ldr	x0, [x0, #8]
 7b4:	97ffff97 	bl	610 <__cxa_finalize@plt>
 7b8:	97ffffda 	bl	720 <deregister_tm_clones>
 7bc:	52800020 	mov	w0, #0x1                   	// #1
 7c0:	39004260 	strb	w0, [x19, #16]
 7c4:	f9400bf3 	ldr	x19, [sp, #16]
 7c8:	a8c27bfd 	ldp	x29, x30, [sp], #32
 7cc:	d65f03c0 	ret

00000000000007d0 <frame_dummy>:
 7d0:	17ffffe0 	b	750 <register_tm_clones>
 7d4:	00000000 	.inst	0x00000000 ; undefined

00000000000007d8 <add_fun>:
{
 7d8:	a9be7bfd 	stp	x29, x30, [sp, #-32]!
 7dc:	910003fd 	mov	x29, sp
 7e0:	a90153f3 	stp	x19, x20, [sp, #16]
 7e4:	2a0103f3 	mov	w19, w1
 7e8:	2a0003f4 	mov	w20, w0
 7ec:	90000000 	adrp	x0, 0 <_init-0x5d8>
 7f0:	91236000 	add	x0, x0, #0x8d8
 7f4:	97ffff9b 	bl	660 <puts@plt>
}
 7f8:	0b130280 	add	w0, w20, w19
 7fc:	a94153f3 	ldp	x19, x20, [sp, #16]
 800:	a8c27bfd 	ldp	x29, x30, [sp], #32
 804:	d65f03c0 	ret

0000000000000808 <sub_fun>:


int sub_fun(int a,int b)
{
 808:	a9be7bfd 	stp	x29, x30, [sp, #-32]!
 80c:	910003fd 	mov	x29, sp
 810:	a90153f3 	stp	x19, x20, [sp, #16]
 814:	2a0103f3 	mov	w19, w1
 818:	2a0003f4 	mov	w20, w0
 81c:	90000000 	adrp	x0, 0 <_init-0x5d8>
 820:	91244000 	add	x0, x0, #0x910
 824:	97ffff8f 	bl	660 <puts@plt>
	printf("in sub_fun\n");
	int tmp;
	tmp=a-b;
	return tmp;
}
 828:	4b130280 	sub	w0, w20, w19
 82c:	a94153f3 	ldp	x19, x20, [sp, #16]
 830:	a8c27bfd 	ldp	x29, x30, [sp], #32
 834:	d65f03c0 	ret

0000000000000838 <__libc_csu_init>:
 838:	a9bc7bfd 	stp	x29, x30, [sp, #-64]!
 83c:	910003fd 	mov	x29, sp
 840:	a901d7f4 	stp	x20, x21, [sp, #24]
 844:	90000094 	adrp	x20, 10000 <__FRAME_END__+0xf6e0>
 848:	90000095 	adrp	x21, 10000 <__FRAME_END__+0xf6e0>
 84c:	91360294 	add	x20, x20, #0xd80
 850:	9135e2b5 	add	x21, x21, #0xd78
 854:	a902dff6 	stp	x22, x23, [sp, #40]
 858:	cb150294 	sub	x20, x20, x21
 85c:	f9001ff8 	str	x24, [sp, #56]
 860:	2a0003f6 	mov	w22, w0
 864:	aa0103f7 	mov	x23, x1
 868:	9343fe94 	asr	x20, x20, #3
 86c:	aa0203f8 	mov	x24, x2
 870:	97ffff5a 	bl	5d8 <_init>
 874:	b4000194 	cbz	x20, 8a4 <__libc_csu_init+0x6c>
 878:	f9000bb3 	str	x19, [x29, #16]
 87c:	d2800013 	mov	x19, #0x0                   	// #0
 880:	f8737aa3 	ldr	x3, [x21, x19, lsl #3]
 884:	aa1803e2 	mov	x2, x24
 888:	aa1703e1 	mov	x1, x23
 88c:	2a1603e0 	mov	w0, w22
 890:	91000673 	add	x19, x19, #0x1
 894:	d63f0060 	blr	x3
 898:	eb13029f 	cmp	x20, x19
 89c:	54ffff21 	b.ne	880 <__libc_csu_init+0x48>  // b.any
 8a0:	f9400bb3 	ldr	x19, [x29, #16]
 8a4:	a941d7f4 	ldp	x20, x21, [sp, #24]
 8a8:	a942dff6 	ldp	x22, x23, [sp, #40]
 8ac:	f9401ff8 	ldr	x24, [sp, #56]
 8b0:	a8c47bfd 	ldp	x29, x30, [sp], #64
 8b4:	d65f03c0 	ret

00000000000008b8 <__libc_csu_fini>:
 8b8:	d65f03c0 	ret

Disassembly of section .fini:

00000000000008bc <_fini>:
 8bc:	a9bf7bfd 	stp	x29, x30, [sp, #-16]!
 8c0:	910003fd 	mov	x29, sp
 8c4:	a8c17bfd 	ldp	x29, x30, [sp], #16
 8c8:	d65f03c0 	ret
